; Function Attrs: nounwind uwtable
define dso_local i64 @json_build_array_worker(i32 noundef %0, ptr noundef readonly captures(none) %1, ptr noundef readonly captures(none) %2, ptr noundef readonly captures(none) %3, i1 noundef zeroext %4) local_unnamed_addr #0 {
  %6 = tail call ptr @makeStringInfo() #10
  tail call void @appendStringInfoChar(ptr noundef %6, i8 noundef signext 91) #10
  %7 = icmp sgt i32 %0, 0
  br i1 %7, label %.lr.ph, label %._crit_edge

.lr.ph:                                           ; preds = %5
  %wide.trip.count26 = zext nneg i32 %0 to i64
  br i1 %4, label %.lr.ph.split.us, label %.lr.ph.split

.lr.ph.split.us:                                  ; preds = %.lr.ph, %18
  %indvars.iv23 = phi i64 [ %indvars.iv.next24, %18 ], [ 0, %.lr.ph ]
  %.01819.us = phi ptr [ %.1.us, %18 ], [ @.str.6, %.lr.ph ]
  %8 = getelementptr inbounds nuw i8, ptr %2, i64 %indvars.iv23
  %9 = load i8, ptr %8, align 1, !range !4, !noundef !5
  %10 = trunc nuw i8 %9 to i1
  br i1 %10, label %18, label %11

11:                                               ; preds = %.lr.ph.split.us
  tail call void @appendStringInfoString(ptr noundef %6, ptr noundef %.01819.us) #10
  %12 = getelementptr inbounds nuw i64, ptr %1, i64 %indvars.iv23
  %13 = load i64, ptr %12, align 8
  %14 = load i8, ptr %8, align 1, !range !4, !noundef !5
  %15 = trunc nuw i8 %14 to i1
  %16 = getelementptr inbounds nuw i32, ptr %3, i64 %indvars.iv23
  %17 = load i32, ptr %16, align 4
  tail call fastcc void @add_json(i64 noundef %13, i1 noundef zeroext %15, ptr noundef %6, i32 noundef %17, i1 noundef zeroext false)
  br label %18

18:                                               ; preds = %11, %.lr.ph.split.us
  %.1.us = phi ptr [ %.01819.us, %.lr.ph.split.us ], [ @.str.10, %11 ]
  %indvars.iv.next24 = add nuw nsw i64 %indvars.iv23, 1
  %exitcond27.not = icmp eq i64 %indvars.iv.next24, %wide.trip.count26
  br i1 %exitcond27.not, label %._crit_edge, label %.lr.ph.split.us, !llvm.loop !9

.lr.ph.split:                                     ; preds = %.lr.ph, %.lr.ph.split
  %indvars.iv = phi i64 [ %indvars.iv.next, %.lr.ph.split ], [ 0, %.lr.ph ]
  %.01819 = phi ptr [ @.str.10, %.lr.ph.split ], [ @.str.6, %.lr.ph ]
  tail call void @appendStringInfoString(ptr noundef %6, ptr noundef nonnull %.01819) #10
  %19 = getelementptr inbounds nuw i64, ptr %1, i64 %indvars.iv
  %20 = load i64, ptr %19, align 8
  %21 = getelementptr inbounds nuw i8, ptr %2, i64 %indvars.iv
  %22 = load i8, ptr %21, align 1, !range !4, !noundef !5
  %23 = trunc nuw i8 %22 to i1
  %24 = getelementptr inbounds nuw i32, ptr %3, i64 %indvars.iv
  %25 = load i32, ptr %24, align 4
  tail call fastcc void @add_json(i64 noundef %20, i1 noundef zeroext %23, ptr noundef %6, i32 noundef %25, i1 noundef zeroext false)
  %indvars.iv.next = add nuw nsw i64 %indvars.iv, 1
  %exitcond.not = icmp eq i64 %indvars.iv.next, %wide.trip.count26
  br i1 %exitcond.not, label %._crit_edge, label %.lr.ph.split, !llvm.loop !9

._crit_edge:                                      ; preds = %.lr.ph.split, %18, %5
  tail call void @appendStringInfoChar(ptr noundef %6, i8 noundef signext 93) #10
  %26 = load ptr, ptr %6, align 8
  %27 = getelementptr inbounds nuw i8, ptr %6, i64 8
  %28 = load i32, ptr %27, align 8
  %29 = tail call ptr @cstring_to_text_with_len(ptr noundef %26, i32 noundef %28) #10
  %30 = ptrtoint ptr %29 to i64
  ret i64 %30
}